target datalayout = "e-m:e-p270:32:32-p271:32:32-p272:64:64-i64:64-i128:128-f80:128-n8:16:32:64-S128"
target triple = "x86_64-pc-linux-gnu"

%class.GPUProgram = type <{ ptr, ptr, ptr, i32, [4 x i8], %"class.std::map", %"class.std::map", %"class.std::map.0", i32, i32, i32, [4 x i8] }>
%"class.std::map" = type { %"class.std::_Rb_tree" }
%"class.std::_Rb_tree" = type { %"struct.std::_Rb_tree<std::__cxx11::basic_string<char>, std::pair<const std::__cxx11::basic_string<char>, int>, std::_Select1st<std::pair<const std::__cxx11::basic_string<char>, int>>, std::less<std::__cxx11::basic_string<char>>>::_Rb_tree_impl" }
%"struct.std::_Rb_tree<std::__cxx11::basic_string<char>, std::pair<const std::__cxx11::basic_string<char>, int>, std::_Select1st<std::pair<const std::__cxx11::basic_string<char>, int>>, std::less<std::__cxx11::basic_string<char>>>::_Rb_tree_impl" = type { %"struct.std::_Rb_tree_key_compare", %"struct.std::_Rb_tree_header" }
%"struct.std::_Rb_tree_key_compare" = type { %"struct.std::less" }
%"struct.std::less" = type { i8 }
%"struct.std::_Rb_tree_header" = type { %"struct.std::_Rb_tree_node_base", i64 }
%"struct.std::_Rb_tree_node_base" = type { i32, ptr, ptr, ptr }
%"class.std::map.0" = type { %"class.std::_Rb_tree.1" }
%"class.std::_Rb_tree.1" = type { %"struct.std::_Rb_tree<unsigned int, std::pair<const unsigned int, std::pair<unsigned int, unsigned int>>, std::_Select1st<std::pair<const unsigned int, std::pair<unsigned int, unsigned int>>>, std::less<unsigned int>>::_Rb_tree_impl" }
%"struct.std::_Rb_tree<unsigned int, std::pair<const unsigned int, std::pair<unsigned int, unsigned int>>, std::_Select1st<std::pair<const unsigned int, std::pair<unsigned int, unsigned int>>>, std::less<unsigned int>>::_Rb_tree_impl" = type { %"struct.std::_Rb_tree_key_compare.5", %"struct.std::_Rb_tree_header" }
%"struct.std::_Rb_tree_key_compare.5" = type { %"struct.std::less.6" }
%"struct.std::less.6" = type { i8 }

@__glewGetAttribLocation = external global ptr, align 8

; Function Attrs: mustprogress uwtable
define void @_ZN10GPUProgram12addAttributeERKNSt7__cxx1112basic_stringIcSt11char_traitsIcESaIcEEE(ptr noundef nonnull align 8 dereferenceable(188) %0, ptr noundef nonnull align 8 dereferenceable(32) %1) #4 align 2 {
  %3 = alloca ptr, align 8
  %4 = alloca ptr, align 8
  %5 = alloca i32, align 4
  store ptr %0, ptr %3, align 8
  store ptr %1, ptr %4, align 8
  %6 = load ptr, ptr %3, align 8
  %7 = load ptr, ptr @__glewGetAttribLocation, align 8
  %8 = getelementptr inbounds %class.GPUProgram, ptr %6, i32 0, i32 3
  %9 = load i32, ptr %8, align 8
  %10 = load ptr, ptr %4, align 8
  %11 = call noundef ptr @_ZNKSt7__cxx1112basic_stringIcSt11char_traitsIcESaIcEE5c_strEv(ptr noundef nonnull align 8 dereferenceable(32) %10) #3
  %12 = call i32 %7(i32 noundef %9, ptr noundef %11)
  store i32 %12, ptr %5, align 4
  %13 = load i32, ptr %5, align 4
  %14 = getelementptr inbounds %class.GPUProgram, ptr %6, i32 0, i32 6
  %15 = load ptr, ptr %4, align 8
  %16 = call noundef nonnull align 4 dereferenceable(4) ptr @_ZNSt3mapINSt7__cxx1112basic_stringIcSt11char_traitsIcESaIcEEEiSt4lessIS5_ESaISt4pairIKS5_iEEEixERS9_(ptr noundef nonnull align 8 dereferenceable(48) %14, ptr noundef nonnull align 8 dereferenceable(32) %15)
  store i32 %13, ptr %16, align 4
  ret void
}